#include <math.h>
#include <stdio.h>
#include <stdlib.h>
#include <string.h>

int main(){
int m,n,a,b,e;
double s=0;
scanf("%d",&m);
for(int i=1;i<=m;i++){
    scanf("%d",&n);
	a=1;
	b=2;
	for(int j=1;j<=n;j++){
        s=s+1.0*b/a;
        e=a;
		a=b;
		b=e+a;
	}
	printf("%.3lf\n",s);
	s=0;
}
return 0;
}